target datalayout = "e-m:e-p270:32:32-p271:32:32-p272:64:64-i64:64-i128:128-f80:128-n8:16:32:64-S128"
target triple = "x86_64-pc-linux-gnu"

%struct._zend_accel_globals = type { i8, i8, i8, i8, i8, %struct._zend_accel_directives, ptr, ptr, [32 x i8], [32 x i8], i32, i8, i32, i8, i32, i64, i64, %struct._zend_array, i64, ptr, ptr, ptr, ptr, ptr }
%struct._zend_accel_directives = type { i64, i64, double, ptr, i64, i8, i8, i8, i8, i8, i8, i8, i8, i8, i8, i8, i64, i64, ptr, ptr, i64, i64, i64, i64, i64, ptr, ptr, ptr, i8, i8, i8, i8, ptr, ptr }
%struct._zend_array = type { %struct._zend_refcounted_h, %union.anon.0, i32, %union.anon.1, i32, i32, i32, i32, i64, ptr }
%struct._zend_refcounted_h = type { i32, %union.anon }
%union.anon = type { i32 }
%union.anon.0 = type { i32 }
%union.anon.1 = type { ptr }
%struct._zend_smm_shared_globals = type { ptr, i32, i64, i64, i8, %struct._zend_shared_memory_state, ptr, ptr, i64 }
%struct._zend_shared_memory_state = type { ptr, i64 }

@smm_shared_globals = external global ptr, align 8
@accel_globals = hidden global %struct._zend_accel_globals zeroinitializer, align 8

; Function Attrs: nounwind uwtable
define hidden void @zend_accel_schedule_restart_if_necessary(i32 noundef %0) #0 {
  %2 = alloca i32, align 4
  store i32 %0, ptr %2, align 4, !tbaa !4
  %3 = load ptr, ptr @smm_shared_globals, align 8, !tbaa !8
  %4 = getelementptr inbounds nuw %struct._zend_smm_shared_globals, ptr %3, i32 0, i32 3
  %5 = load i64, ptr %4, align 8, !tbaa !11
  %6 = uitofp i64 %5 to double
  %7 = load i64, ptr getelementptr inbounds nuw (%struct._zend_accel_globals, ptr @accel_globals, i32 0, i32 5), align 8, !tbaa !18
  %8 = sitofp i64 %7 to double
  %9 = fdiv double %6, %8
  %10 = load double, ptr getelementptr inbounds nuw (%struct._zend_accel_directives, ptr getelementptr inbounds nuw (%struct._zend_accel_globals, ptr @accel_globals, i32 0, i32 5), i32 0, i32 2), align 8, !tbaa !28
  %11 = fcmp oge double %9, %10
  br i1 %11, label %12, label %14

12:                                               ; preds = %1
  %13 = load i32, ptr %2, align 4, !tbaa !4
  call void @zend_accel_schedule_restart(i32 noundef %13)
  br label %14

14:                                               ; preds = %12, %1
  ret void
}