; Function Attrs: nounwind uwtable
define hidden void @zend_accel_schedule_restart_if_necessary(i32 noundef %0) local_unnamed_addr #0 {
  %2 = load ptr, ptr @smm_shared_globals, align 8, !tbaa !4
  %3 = getelementptr inbounds nuw i8, ptr %2, i64 24
  %4 = load i64, ptr %3, align 8, !tbaa !9
  %5 = uitofp i64 %4 to double
  %6 = load i64, ptr getelementptr inbounds nuw (i8, ptr @accel_globals, i64 8), align 8, !tbaa !17
  %7 = sitofp i64 %6 to double
  %8 = fdiv double %5, %7
  %9 = load double, ptr getelementptr inbounds nuw (i8, ptr @accel_globals, i64 24), align 8, !tbaa !27
  %10 = fcmp ult double %8, %9
  br i1 %10, label %12, label %11

11:                                               ; preds = %1
  tail call void @zend_accel_schedule_restart(i32 noundef %0)
  br label %12

12:                                               ; preds = %11, %1
  ret void
}